; Function Attrs: nounwind uwtable
define internal fastcc noalias noundef ptr @read_char_literal(ptr noundef %start, ptr noundef %quote, ptr noundef %ty) unnamed_addr #4 {
entry:
  %p = alloca ptr, align 8
  %add.ptr = getelementptr inbounds i8, ptr %quote, i64 1
  store ptr %add.ptr, ptr %p, align 8
  %0 = load i8, ptr %add.ptr, align 1
  switch i8 %0, label %if.else [
    i8 0, label %if.then
    i8 92, label %if.then5
  ]

if.then:                                          ; preds = %entry
  tail call void (ptr, ptr, ...) @error_at(ptr noundef %start, ptr noundef nonnull @.str.84) #26
  unreachable

if.then5:                                         ; preds = %entry
  %add.ptr6 = getelementptr inbounds i8, ptr %quote, i64 2
  %call = call fastcc i32 @read_escaped_char(ptr noundef nonnull %p, ptr noundef nonnull %add.ptr6)
  br label %if.end8

if.else:                                          ; preds = %entry
  %call7 = call i32 @decode_utf8(ptr noundef nonnull %p, ptr noundef nonnull %add.ptr) #25
  br label %if.end8

if.end8:                                          ; preds = %if.else, %if.then5
  %c.0 = phi i32 [ %call, %if.then5 ], [ %call7, %if.else ]
  %1 = load ptr, ptr %p, align 8
  %call9 = call ptr @strchr(ptr noundef nonnull dereferenceable(1) %1, i32 noundef 39) #27
  %tobool.not = icmp eq ptr %call9, null
  br i1 %tobool.not, label %if.then10, label %if.end11

if.then10:                                        ; preds = %if.end8
  call void (ptr, ptr, ...) @error_at(ptr noundef %1, ptr noundef nonnull @.str.84) #26
  unreachable

if.end11:                                         ; preds = %if.end8
  %add.ptr12 = getelementptr inbounds i8, ptr %call9, i64 1
  %call.i = call noalias dereferenceable_or_null(128) ptr @calloc(i64 noundef 1, i64 noundef 128) #29
  store i32 4, ptr %call.i, align 16
  %loc.i = getelementptr inbounds %struct.Token, ptr %call.i, i64 0, i32 4
  store ptr %start, ptr %loc.i, align 16
  %sub.ptr.lhs.cast.i = ptrtoint ptr %add.ptr12 to i64
  %sub.ptr.rhs.cast.i = ptrtoint ptr %start to i64
  %sub.ptr.sub.i = sub i64 %sub.ptr.lhs.cast.i, %sub.ptr.rhs.cast.i
  %conv.i = trunc i64 %sub.ptr.sub.i to i32
  %len.i = getelementptr inbounds %struct.Token, ptr %call.i, i64 0, i32 5
  store i32 %conv.i, ptr %len.i, align 8
  %2 = load ptr, ptr @current_file, align 8
  %file.i = getelementptr inbounds %struct.Token, ptr %call.i, i64 0, i32 8
  store ptr %2, ptr %file.i, align 16
  %display_name.i = getelementptr inbounds %struct.File, ptr %2, i64 0, i32 3
  %3 = load ptr, ptr %display_name.i, align 8
  %filename.i = getelementptr inbounds %struct.Token, ptr %call.i, i64 0, i32 9
  store ptr %3, ptr %filename.i, align 8
  %.b10.i = load i1, ptr @at_bol, align 1
  %at_bol.i = getelementptr inbounds %struct.Token, ptr %call.i, i64 0, i32 12
  %frombool.i = zext i1 %.b10.i to i8
  store i8 %frombool.i, ptr %at_bol.i, align 8
  %.b911.i = load i1, ptr @has_space, align 1
  %has_space.i = getelementptr inbounds %struct.Token, ptr %call.i, i64 0, i32 13
  %frombool3.i = zext i1 %.b911.i to i8
  store i8 %frombool3.i, ptr %has_space.i, align 1
  store i1 false, ptr @has_space, align 1
  store i1 false, ptr @at_bol, align 1
  %conv14 = sext i32 %c.0 to i64
  %val = getelementptr inbounds %struct.Token, ptr %call.i, i64 0, i32 2
  store i64 %conv14, ptr %val, align 16
  %ty15 = getelementptr inbounds %struct.Token, ptr %call.i, i64 0, i32 6
  store ptr %ty, ptr %ty15, align 16
  ret ptr %call.i
}